target datalayout = "e-m:e-p270:32:32-p271:32:32-p272:64:64-i64:64-i128:128-f80:128-n8:16:32:64-S128"
target triple = "x86_64-pc-linux-gnu"

; Function Attrs: nounwind uwtable
define i32 @cdn_ctn_is_valid(ptr noundef %0, i64 noundef %1) #0 {
  %3 = alloca i32, align 4
  %4 = alloca ptr, align 8
  %5 = alloca i64, align 8
  %6 = alloca i32, align 4
  %7 = alloca i32, align 4
  store ptr %0, ptr %4, align 8
  store i64 %1, ptr %5, align 8
  store i32 0, ptr %7, align 4
  %8 = load ptr, ptr %4, align 8
  %9 = icmp eq ptr %8, null
  br i1 %9, label %13, label %10

10:                                               ; preds = %2
  %11 = load i64, ptr %5, align 8
  %12 = icmp ult i64 %11, 9
  br i1 %12, label %13, label %14

13:                                               ; preds = %10, %2
  store i32 0, ptr %3, align 4
  br label %82

14:                                               ; preds = %10
  %15 = load ptr, ptr %4, align 8
  %16 = getelementptr inbounds i8, ptr %15, i64 5
  %17 = load i8, ptr %16, align 1
  %18 = sext i8 %17 to i32
  %19 = icmp ne i32 %18, 45
  br i1 %19, label %20, label %21

20:                                               ; preds = %14
  store i32 0, ptr %3, align 4
  br label %82

21:                                               ; preds = %14
  store i32 0, ptr %6, align 4
  br label %22

22:                                               ; preds = %42, %21
  %23 = load i32, ptr %6, align 4
  %24 = icmp slt i32 %23, 5
  br i1 %24, label %25, label %45

25:                                               ; preds = %22
  %26 = call ptr @__ctype_b_loc() #5
  %27 = load ptr, ptr %26, align 8
  %28 = load ptr, ptr %4, align 8
  %29 = load i32, ptr %6, align 4
  %30 = sext i32 %29 to i64
  %31 = getelementptr inbounds i8, ptr %28, i64 %30
  %32 = load i8, ptr %31, align 1
  %33 = sext i8 %32 to i32
  %34 = sext i32 %33 to i64
  %35 = getelementptr inbounds i16, ptr %27, i64 %34
  %36 = load i16, ptr %35, align 2
  %37 = zext i16 %36 to i32
  %38 = and i32 %37, 2048
  %39 = icmp eq i32 %38, 0
  br i1 %39, label %40, label %41

40:                                               ; preds = %25
  store i32 0, ptr %3, align 4
  br label %82

41:                                               ; preds = %25
  br label %42

42:                                               ; preds = %41
  %43 = load i32, ptr %6, align 4
  %44 = add nsw i32 %43, 1
  store i32 %44, ptr %6, align 4
  br label %22

45:                                               ; preds = %22
  store i32 6, ptr %6, align 4
  br label %46

46:                                               ; preds = %76, %45
  %47 = load i32, ptr %6, align 4
  %48 = icmp slt i32 %47, 9
  br i1 %48, label %49, label %79

49:                                               ; preds = %46
  %50 = call ptr @__ctype_b_loc() #5
  %51 = load ptr, ptr %50, align 8
  %52 = load ptr, ptr %4, align 8
  %53 = load i32, ptr %6, align 4
  %54 = sext i32 %53 to i64
  %55 = getelementptr inbounds i8, ptr %52, i64 %54
  %56 = load i8, ptr %55, align 1
  %57 = sext i8 %56 to i32
  %58 = sext i32 %57 to i64
  %59 = getelementptr inbounds i16, ptr %51, i64 %58
  %60 = load i16, ptr %59, align 2
  %61 = zext i16 %60 to i32
  %62 = and i32 %61, 2048
  %63 = icmp eq i32 %62, 0
  br i1 %63, label %64, label %65

64:                                               ; preds = %49
  store i32 0, ptr %3, align 4
  br label %82

65:                                               ; preds = %49
  %66 = load i32, ptr %7, align 4
  %67 = mul nsw i32 %66, 10
  %68 = load ptr, ptr %4, align 8
  %69 = load i32, ptr %6, align 4
  %70 = sext i32 %69 to i64
  %71 = getelementptr inbounds i8, ptr %68, i64 %70
  %72 = load i8, ptr %71, align 1
  %73 = sext i8 %72 to i32
  %74 = sub nsw i32 %73, 48
  %75 = add nsw i32 %67, %74
  store i32 %75, ptr %7, align 4
  br label %76

76:                                               ; preds = %65
  %77 = load i32, ptr %6, align 4
  %78 = add nsw i32 %77, 1
  store i32 %78, ptr %6, align 4
  br label %46

79:                                               ; preds = %46
  %80 = load i32, ptr %7, align 4
  %81 = call i32 @is_bank_code_valid(i32 noundef %80)
  store i32 %81, ptr %3, align 4
  br label %82

82:                                               ; preds = %79, %64, %40, %20, %13
  %83 = load i32, ptr %3, align 4
  ret i32 %83
}