; Function Attrs: nofree nosync nounwind memory(read, inaccessiblemem: none) uwtable
define range(i32 0, 2) i32 @cdn_ctn_is_valid(ptr noundef readonly %0, i64 noundef %1) local_unnamed_addr #6 {
  %3 = icmp eq ptr %0, null
  %4 = icmp ult i64 %1, 9
  %or.cond = or i1 %3, %4
  br i1 %or.cond, label %.loopexit, label %5

5:                                                ; preds = %2
  %6 = getelementptr inbounds nuw i8, ptr %0, i64 5
  %7 = load i8, ptr %6, align 1
  %.not = icmp eq i8 %7, 45
  br i1 %.not, label %.preheader19, label %.loopexit

.preheader19:                                     ; preds = %5
  %8 = tail call ptr @__ctype_b_loc() #9
  %9 = load ptr, ptr %8, align 8
  br label %11

10:                                               ; preds = %11
  %indvars.iv.next = add nuw nsw i64 %indvars.iv, 1
  %exitcond.not = icmp eq i64 %indvars.iv.next, 5
  br i1 %exitcond.not, label %.preheader, label %11

11:                                               ; preds = %.preheader19, %10
  %indvars.iv = phi i64 [ 0, %.preheader19 ], [ %indvars.iv.next, %10 ]
  %12 = getelementptr inbounds nuw i8, ptr %0, i64 %indvars.iv
  %13 = load i8, ptr %12, align 1
  %14 = sext i8 %13 to i64
  %15 = getelementptr inbounds i16, ptr %9, i64 %14
  %16 = load i16, ptr %15, align 2
  %17 = and i16 %16, 2048
  %18 = icmp eq i16 %17, 0
  br i1 %18, label %.loopexit, label %10

.preheader:                                       ; preds = %10, %26
  %indvars.iv27 = phi i64 [ %indvars.iv.next28, %26 ], [ 6, %10 ]
  %.024 = phi i32 [ %30, %26 ], [ 0, %10 ]
  %19 = getelementptr inbounds nuw i8, ptr %0, i64 %indvars.iv27
  %20 = load i8, ptr %19, align 1
  %21 = sext i8 %20 to i64
  %22 = getelementptr inbounds i16, ptr %9, i64 %21
  %23 = load i16, ptr %22, align 2
  %24 = and i16 %23, 2048
  %25 = icmp eq i16 %24, 0
  br i1 %25, label %.loopexit, label %26

26:                                               ; preds = %.preheader
  %27 = sext i8 %20 to i32
  %28 = mul nsw i32 %.024, 10
  %29 = add i32 %28, -48
  %30 = add i32 %29, %27
  %indvars.iv.next28 = add nuw nsw i64 %indvars.iv27, 1
  %exitcond30.not = icmp eq i64 %indvars.iv.next28, 9
  br i1 %exitcond30.not, label %31, label %.preheader

31:                                               ; preds = %26
  %32 = tail call i32 @is_bank_code_valid(i32 noundef %30)
  br label %.loopexit

.loopexit:                                        ; preds = %11, %.preheader, %5, %2, %31
  %.017 = phi i32 [ %32, %31 ], [ 0, %2 ], [ 0, %5 ], [ 0, %.preheader ], [ 0, %11 ]
  ret i32 %.017
}